target datalayout = "e-m:e-p270:32:32-p271:32:32-p272:64:64-i64:64-i128:128-f80:128-n8:16:32:64-S128"
target triple = "x86_64-pc-linux-gnu"

; Function Attrs: nounwind uwtable
define internal i32 @get_zoneobj_len(ptr noundef %0, i32 noundef %1) #0 {
  %3 = alloca ptr, align 8
  %4 = alloca i32, align 4
  %5 = alloca i32, align 4
  %6 = alloca i32, align 4
  %7 = alloca i8, align 1
  %8 = alloca i32, align 4
  %9 = alloca i32, align 4
  %10 = alloca i32, align 4
  store ptr %0, ptr %3, align 8
  store i32 %1, ptr %4, align 4
  %11 = load ptr, ptr %3, align 8
  %12 = load i32, ptr %4, align 4
  %13 = call zeroext i8 @tvb_get_guint8(ptr noundef %11, i32 noundef %12)
  store i8 %13, ptr %7, align 1
  %14 = load ptr, ptr %3, align 8
  %15 = load i32, ptr %4, align 4
  %16 = add i32 %15, 4
  %17 = call zeroext i8 @tvb_get_guint8(ptr noundef %14, i32 noundef %16)
  %18 = zext i8 %17 to i32
  %19 = add i32 %18, 4
  %20 = add i32 4, %19
  store i32 %20, ptr %10, align 4
  %21 = load ptr, ptr %3, align 8
  %22 = load i32, ptr %4, align 4
  %23 = load i32, ptr %10, align 4
  %24 = add i32 %22, %23
  %25 = call i32 @tvb_get_ntohl(ptr noundef %21, i32 noundef %24)
  store i32 %25, ptr %5, align 4
  %26 = load i32, ptr %10, align 4
  %27 = add i32 %26, 4
  store i32 %27, ptr %10, align 4
  store i32 0, ptr %8, align 4
  br label %28

28:                                               ; preds = %86, %2
  %29 = load i32, ptr %8, align 4
  %30 = load i32, ptr %5, align 4
  %31 = icmp slt i32 %29, %30
  br i1 %31, label %32, label %89

32:                                               ; preds = %28
  %33 = load i8, ptr %7, align 1
  %34 = zext i8 %33 to i32
  %35 = icmp eq i32 %34, 1
  br i1 %35, label %36, label %74

36:                                               ; preds = %32
  %37 = load ptr, ptr %3, align 8
  %38 = load i32, ptr %4, align 4
  %39 = add i32 %38, 4
  %40 = load i32, ptr %10, align 4
  %41 = add i32 %39, %40
  %42 = call zeroext i8 @tvb_get_guint8(ptr noundef %37, i32 noundef %41)
  %43 = zext i8 %42 to i32
  %44 = add i32 %43, 4
  %45 = add i32 4, %44
  %46 = load i32, ptr %10, align 4
  %47 = add i32 %46, %45
  store i32 %47, ptr %10, align 4
  %48 = load ptr, ptr %3, align 8
  %49 = load i32, ptr %4, align 4
  %50 = load i32, ptr %10, align 4
  %51 = add i32 %49, %50
  %52 = call i32 @tvb_get_ntohl(ptr noundef %48, i32 noundef %51)
  store i32 %52, ptr %6, align 4
  %53 = load i32, ptr %10, align 4
  %54 = add i32 %53, 4
  store i32 %54, ptr %10, align 4
  store i32 0, ptr %9, align 4
  br label %55

55:                                               ; preds = %70, %36
  %56 = load i32, ptr %9, align 4
  %57 = load i32, ptr %6, align 4
  %58 = icmp slt i32 %56, %57
  br i1 %58, label %59, label %73

59:                                               ; preds = %55
  %60 = load ptr, ptr %3, align 8
  %61 = load i32, ptr %4, align 4
  %62 = add i32 %61, 3
  %63 = load i32, ptr %10, align 4
  %64 = add i32 %62, %63
  %65 = call zeroext i8 @tvb_get_guint8(ptr noundef %60, i32 noundef %64)
  %66 = zext i8 %65 to i32
  %67 = add i32 4, %66
  %68 = load i32, ptr %10, align 4
  %69 = add i32 %68, %67
  store i32 %69, ptr %10, align 4
  br label %70

70:                                               ; preds = %59
  %71 = load i32, ptr %9, align 4
  %72 = add i32 %71, 1
  store i32 %72, ptr %9, align 4
  br label %55, !llvm.loop !18

73:                                               ; preds = %55
  br label %85

74:                                               ; preds = %32
  %75 = load ptr, ptr %3, align 8
  %76 = load i32, ptr %4, align 4
  %77 = add i32 %76, 3
  %78 = load i32, ptr %10, align 4
  %79 = add i32 %77, %78
  %80 = call zeroext i8 @tvb_get_guint8(ptr noundef %75, i32 noundef %79)
  %81 = zext i8 %80 to i32
  %82 = add i32 4, %81
  %83 = load i32, ptr %10, align 4
  %84 = add i32 %83, %82
  store i32 %84, ptr %10, align 4
  br label %85

85:                                               ; preds = %74, %73
  br label %86

86:                                               ; preds = %85
  %87 = load i32, ptr %8, align 4
  %88 = add i32 %87, 1
  store i32 %88, ptr %8, align 4
  br label %28, !llvm.loop !19

89:                                               ; preds = %28
  %90 = load i32, ptr %10, align 4
  ret i32 %90
}