; Function Attrs: nounwind uwtable
define internal fastcc i32 @get_zoneobj_len(ptr noundef %0, i32 noundef %1) unnamed_addr #0 {
  %3 = tail call zeroext i8 @tvb_get_guint8(ptr noundef %0, i32 noundef %1) #7
  %4 = add i32 %1, 4
  %5 = tail call zeroext i8 @tvb_get_guint8(ptr noundef %0, i32 noundef %4) #7
  %6 = zext i8 %5 to i32
  %7 = add i32 %1, 8
  %8 = add i32 %7, %6
  %9 = tail call i32 @tvb_get_ntohl(ptr noundef %0, i32 noundef %8) #7
  %10 = add nuw nsw i32 %6, 12
  %11 = icmp sgt i32 %9, 0
  br i1 %11, label %.lr.ph37, label %._crit_edge

.lr.ph37:                                         ; preds = %2
  %12 = icmp eq i8 %3, 1
  %13 = add i32 %1, 3
  br i1 %12, label %.lr.ph37.split.us, label %.lr.ph37.split

.lr.ph37.split.us:                                ; preds = %.lr.ph37, %.loopexit.us
  %.036.us = phi i32 [ %.1.lcssa.us, %.loopexit.us ], [ %10, %.lr.ph37 ]
  %.03235.us = phi i32 [ %29, %.loopexit.us ], [ 0, %.lr.ph37 ]
  %14 = add i32 %.036.us, %4
  %15 = tail call zeroext i8 @tvb_get_guint8(ptr noundef %0, i32 noundef %14) #7
  %16 = zext i8 %15 to i32
  %17 = add i32 %.036.us, 8
  %18 = add i32 %17, %16
  %19 = add i32 %18, %1
  %20 = tail call i32 @tvb_get_ntohl(ptr noundef %0, i32 noundef %19) #7
  %21 = add i32 %18, 4
  %22 = icmp sgt i32 %20, 0
  br i1 %22, label %.lr.ph.us, label %.loopexit.us

.lr.ph.us:                                        ; preds = %.lr.ph37.split.us, %.lr.ph.us
  %.134.us = phi i32 [ %27, %.lr.ph.us ], [ %21, %.lr.ph37.split.us ]
  %.03133.us = phi i32 [ %28, %.lr.ph.us ], [ 0, %.lr.ph37.split.us ]
  %23 = add i32 %13, %.134.us
  %24 = tail call zeroext i8 @tvb_get_guint8(ptr noundef %0, i32 noundef %23) #7
  %25 = zext i8 %24 to i32
  %26 = add i32 %.134.us, 4
  %27 = add i32 %26, %25
  %28 = add nuw nsw i32 %.03133.us, 1
  %exitcond41.not = icmp eq i32 %28, %20
  br i1 %exitcond41.not, label %.loopexit.us, label %.lr.ph.us, !llvm.loop !21

.loopexit.us:                                     ; preds = %.lr.ph.us, %.lr.ph37.split.us
  %.1.lcssa.us = phi i32 [ %21, %.lr.ph37.split.us ], [ %27, %.lr.ph.us ]
  %29 = add nuw nsw i32 %.03235.us, 1
  %exitcond42.not = icmp eq i32 %29, %9
  br i1 %exitcond42.not, label %._crit_edge, label %.lr.ph37.split.us, !llvm.loop !22

.lr.ph37.split:                                   ; preds = %.lr.ph37, %.lr.ph37.split
  %.036 = phi i32 [ %34, %.lr.ph37.split ], [ %10, %.lr.ph37 ]
  %.03235 = phi i32 [ %35, %.lr.ph37.split ], [ 0, %.lr.ph37 ]
  %30 = add i32 %13, %.036
  %31 = tail call zeroext i8 @tvb_get_guint8(ptr noundef %0, i32 noundef %30) #7
  %32 = zext i8 %31 to i32
  %33 = add i32 %.036, 4
  %34 = add i32 %33, %32
  %35 = add nuw nsw i32 %.03235, 1
  %exitcond.not = icmp eq i32 %35, %9
  br i1 %exitcond.not, label %._crit_edge, label %.lr.ph37.split, !llvm.loop !22

._crit_edge:                                      ; preds = %.lr.ph37.split, %.loopexit.us, %2
  %.0.lcssa = phi i32 [ %10, %2 ], [ %.1.lcssa.us, %.loopexit.us ], [ %34, %.lr.ph37.split ]
  ret i32 %.0.lcssa
}